; Function Attrs: mustprogress nofree norecurse nosync nounwind willreturn memory(read, inaccessiblemem: none) uwtable
define dso_local noundef ptr @_ZNK5clang4ento9MemRegion15getSymbolicBaseEv(ptr noundef nonnull readonly align 8 dereferenceable(48) %0) local_unnamed_addr #4 align 2 {
  %2 = getelementptr inbounds nuw i8, ptr %0, i64 16
  %3 = load i32, ptr %2, align 8
  %4 = icmp slt i32 %3, 9
  br i1 %4, label %select.unfold._crit_edge, label %.lr.ph

.lr.ph:                                           ; preds = %1, %select.unfold
  %.0717 = phi ptr [ %8, %select.unfold ], [ %0, %1 ]
  %5 = getelementptr inbounds nuw i8, ptr %.0717, i64 16
  %6 = load i32, ptr %5, align 8
  %.not15 = icmp eq i32 %6, 10
  br i1 %.not15, label %select.unfold._crit_edge, label %select.unfold

select.unfold:                                    ; preds = %.lr.ph
  %7 = getelementptr inbounds nuw i8, ptr %.0717, i64 48
  %8 = load ptr, ptr %7, align 8
  %9 = getelementptr inbounds nuw i8, ptr %8, i64 16
  %10 = load i32, ptr %9, align 8
  %11 = icmp slt i32 %10, 9
  %.not19 = icmp eq ptr %8, null
  %.not = or i1 %11, %.not19
  br i1 %.not, label %select.unfold._crit_edge, label %.lr.ph

select.unfold._crit_edge:                         ; preds = %.lr.ph, %select.unfold, %1
  %.0 = phi ptr [ null, %1 ], [ null, %select.unfold ], [ %.0717, %.lr.ph ]
  ret ptr %.0
}